target datalayout = "e-m:e-p270:32:32-p271:32:32-p272:64:64-i64:64-i128:128-f80:128-n8:16:32:64-S128"
target triple = "x86_64-unknown-linux-gnu"

%"class.icu_75::Locale" = type <{ %"class.icu_75::UObject", [12 x i8], [6 x i8], [4 x i8], [2 x i8], i32, [4 x i8], ptr, [157 x i8], [3 x i8], ptr, i8, [7 x i8] }>
%"class.icu_75::UObject" = type { ptr }
%"class.icu_75::UnicodeString" = type { %"class.icu_75::Replaceable", %"union.icu_75::UnicodeString::StackBufferOrFields" }
%"class.icu_75::Replaceable" = type { %"class.icu_75::UObject" }
%"union.icu_75::UnicodeString::StackBufferOrFields" = type { %struct.anon.0, [32 x i8] }
%struct.anon.0 = type { i16, i32, i32, ptr }
%"class.icu_75::DecimalFormatSymbols" = type <{ %"class.icu_75::UObject", [29 x %"class.icu_75::UnicodeString"], %"class.icu_75::UnicodeString", i32, [4 x i8], %"class.icu_75::Locale", [157 x i8], [157 x i8], [6 x i8], ptr, [3 x %"class.icu_75::UnicodeString"], [3 x %"class.icu_75::UnicodeString"], i8, i8, [9 x i8], [5 x i8] }>

@_ZTIN6icu_7512NumberFormatE = external constant ptr
@_ZTIN6icu_7513DecimalFormatE = external constant ptr

; Function Attrs: mustprogress nounwind uwtable
define internal noundef signext i8 @_ZL9U_FAILURE10UErrorCode(i32 noundef %code) #1 {
entry:
  %code.addr = alloca i32, align 4
  store i32 %code, ptr %code.addr, align 4
  %0 = load i32, ptr %code.addr, align 4
  %cmp = icmp sgt i32 %0, 0
  %conv = zext i1 %cmp to i8
  ret i8 %conv
}

; Function Attrs: mustprogress uwtable
define void @unum_setSymbol_75(ptr noundef %fmt, i32 noundef %symbol, ptr noundef %value, i32 noundef %length, ptr noundef %status) #0 personality ptr @__gxx_personality_v0 {
entry:
  %fmt.addr = alloca ptr, align 8
  %symbol.addr = alloca i32, align 4
  %value.addr = alloca ptr, align 8
  %length.addr = alloca i32, align 4
  %status.addr = alloca ptr, align 8
  %nf = alloca ptr, align 8
  %dcf = alloca ptr, align 8
  %symbols = alloca %"class.icu_75::DecimalFormatSymbols", align 8
  %ref.tmp = alloca %"class.icu_75::UnicodeString", align 8
  %exn.slot = alloca ptr, align 8
  %ehselector.slot = alloca i32, align 4
  store ptr %fmt, ptr %fmt.addr, align 8
  store i32 %symbol, ptr %symbol.addr, align 4
  store ptr %value, ptr %value.addr, align 8
  store i32 %length, ptr %length.addr, align 4
  store ptr %status, ptr %status.addr, align 8
  %0 = load ptr, ptr %status.addr, align 8
  %cmp = icmp eq ptr %0, null
  br i1 %cmp, label %if.then, label %lor.lhs.false

lor.lhs.false:                                    ; preds = %entry
  %1 = load ptr, ptr %status.addr, align 8
  %2 = load i32, ptr %1, align 4
  %call = call noundef signext i8 @_ZL9U_FAILURE10UErrorCode(i32 noundef %2)
  %tobool = icmp ne i8 %call, 0
  br i1 %tobool, label %if.then, label %if.end

if.then:                                          ; preds = %lor.lhs.false, %entry
  br label %return

if.end:                                           ; preds = %lor.lhs.false
  %3 = load ptr, ptr %fmt.addr, align 8
  %cmp1 = icmp eq ptr %3, null
  br i1 %cmp1, label %if.then10, label %lor.lhs.false2

lor.lhs.false2:                                   ; preds = %if.end
  %4 = load i32, ptr %symbol.addr, align 4
  %cmp3 = icmp slt i32 %4, 0
  br i1 %cmp3, label %if.then10, label %lor.lhs.false4

lor.lhs.false4:                                   ; preds = %lor.lhs.false2
  %5 = load i32, ptr %symbol.addr, align 4
  %cmp5 = icmp sge i32 %5, 29
  br i1 %cmp5, label %if.then10, label %lor.lhs.false6

lor.lhs.false6:                                   ; preds = %lor.lhs.false4
  %6 = load ptr, ptr %value.addr, align 8
  %cmp7 = icmp eq ptr %6, null
  br i1 %cmp7, label %if.then10, label %lor.lhs.false8

lor.lhs.false8:                                   ; preds = %lor.lhs.false6
  %7 = load i32, ptr %length.addr, align 4
  %cmp9 = icmp slt i32 %7, -1
  br i1 %cmp9, label %if.then10, label %if.end11

if.then10:                                        ; preds = %lor.lhs.false8, %lor.lhs.false6, %lor.lhs.false4, %lor.lhs.false2, %if.end
  %8 = load ptr, ptr %status.addr, align 8
  store i32 1, ptr %8, align 4
  br label %return

if.end11:                                         ; preds = %lor.lhs.false8
  %9 = load ptr, ptr %fmt.addr, align 8
  store ptr %9, ptr %nf, align 8
  %10 = load ptr, ptr %nf, align 8
  %11 = icmp eq ptr %10, null
  br i1 %11, label %dynamic_cast.null, label %dynamic_cast.notnull

dynamic_cast.notnull:                             ; preds = %if.end11
  %12 = call ptr @__dynamic_cast(ptr %10, ptr @_ZTIN6icu_7512NumberFormatE, ptr @_ZTIN6icu_7513DecimalFormatE, i64 0) #8
  br label %dynamic_cast.end

dynamic_cast.null:                                ; preds = %if.end11
  br label %dynamic_cast.end

dynamic_cast.end:                                 ; preds = %dynamic_cast.null, %dynamic_cast.notnull
  %13 = phi ptr [ %12, %dynamic_cast.notnull ], [ null, %dynamic_cast.null ]
  store ptr %13, ptr %dcf, align 8
  %14 = load ptr, ptr %dcf, align 8
  %cmp12 = icmp eq ptr %14, null
  br i1 %cmp12, label %if.then13, label %if.end14

if.then13:                                        ; preds = %dynamic_cast.end
  %15 = load ptr, ptr %status.addr, align 8
  store i32 16, ptr %15, align 4
  br label %return

if.end14:                                         ; preds = %dynamic_cast.end
  %16 = load ptr, ptr %dcf, align 8
  %vtable = load ptr, ptr %16, align 8
  %vfn = getelementptr inbounds ptr, ptr %vtable, i64 39
  %17 = load ptr, ptr %vfn, align 8
  %call15 = call noundef ptr %17(ptr noundef nonnull align 8 dereferenceable(368) %16)
  call void @_ZN6icu_7520DecimalFormatSymbolsC1ERKS0_(ptr noundef nonnull align 8 dereferenceable(2883) %symbols, ptr noundef nonnull align 8 dereferenceable(2883) %call15)
  %18 = load i32, ptr %symbol.addr, align 4
  %19 = load ptr, ptr %value.addr, align 8
  %20 = load i32, ptr %length.addr, align 4
  invoke void @_ZN6icu_7513UnicodeStringC1EPKDsi(ptr noundef nonnull align 8 dereferenceable(64) %ref.tmp, ptr noundef %19, i32 noundef %20)
          to label %invoke.cont unwind label %lpad

invoke.cont:                                      ; preds = %if.end14
  invoke void @_ZN6icu_7520DecimalFormatSymbols9setSymbolENS0_19ENumberFormatSymbolERKNS_13UnicodeStringEa(ptr noundef nonnull align 8 dereferenceable(2883) %symbols, i32 noundef %18, ptr noundef nonnull align 8 dereferenceable(64) %ref.tmp, i8 noundef signext 1)
          to label %invoke.cont17 unwind label %lpad16

invoke.cont17:                                    ; preds = %invoke.cont
  call void @_ZN6icu_7513UnicodeStringD1Ev(ptr noundef nonnull align 8 dereferenceable(64) %ref.tmp) #8
  %21 = load ptr, ptr %dcf, align 8
  %vtable18 = load ptr, ptr %21, align 8
  %vfn19 = getelementptr inbounds ptr, ptr %vtable18, i64 41
  %22 = load ptr, ptr %vfn19, align 8
  invoke void %22(ptr noundef nonnull align 8 dereferenceable(368) %21, ptr noundef nonnull align 8 dereferenceable(2883) %symbols)
          to label %invoke.cont20 unwind label %lpad

invoke.cont20:                                    ; preds = %invoke.cont17
  call void @_ZN6icu_7520DecimalFormatSymbolsD1Ev(ptr noundef nonnull align 8 dereferenceable(2883) %symbols) #8
  br label %return

return:                                           ; preds = %invoke.cont20, %if.then13, %if.then10, %if.then
  ret void

lpad:                                             ; preds = %invoke.cont17, %if.end14
  %23 = landingpad { ptr, i32 }
          cleanup
  %24 = extractvalue { ptr, i32 } %23, 0
  store ptr %24, ptr %exn.slot, align 8
  %25 = extractvalue { ptr, i32 } %23, 1
  store i32 %25, ptr %ehselector.slot, align 4
  br label %ehcleanup

lpad16:                                           ; preds = %invoke.cont
  %26 = landingpad { ptr, i32 }
          cleanup
  %27 = extractvalue { ptr, i32 } %26, 0
  store ptr %27, ptr %exn.slot, align 8
  %28 = extractvalue { ptr, i32 } %26, 1
  store i32 %28, ptr %ehselector.slot, align 4
  call void @_ZN6icu_7513UnicodeStringD1Ev(ptr noundef nonnull align 8 dereferenceable(64) %ref.tmp) #8
  br label %ehcleanup

ehcleanup:                                        ; preds = %lpad16, %lpad
  call void @_ZN6icu_7520DecimalFormatSymbolsD1Ev(ptr noundef nonnull align 8 dereferenceable(2883) %symbols) #8
  br label %eh.resume

eh.resume:                                        ; preds = %ehcleanup
  %exn = load ptr, ptr %exn.slot, align 8
  %sel = load i32, ptr %ehselector.slot, align 4
  %lpad.val = insertvalue { ptr, i32 } poison, ptr %exn, 0
  %lpad.val21 = insertvalue { ptr, i32 } %lpad.val, i32 %sel, 1
  resume { ptr, i32 } %lpad.val21
}