; Function Attrs: mustprogress uwtable
define void @unum_setSymbol_75(ptr noundef %fmt, i32 noundef %symbol, ptr noundef %value, i32 noundef %length, ptr noundef %status) local_unnamed_addr #0 personality ptr @__gxx_personality_v0 {
entry:
  %symbols = alloca %"class.icu_75::DecimalFormatSymbols", align 8
  %ref.tmp = alloca %"class.icu_75::UnicodeString", align 8
  %cmp = icmp eq ptr %status, null
  br i1 %cmp, label %return, label %lor.lhs.false

lor.lhs.false:                                    ; preds = %entry
  %0 = load i32, ptr %status, align 4
  %cmp.i = icmp slt i32 %0, 1
  br i1 %cmp.i, label %if.end, label %return

if.end:                                           ; preds = %lor.lhs.false
  %cmp1 = icmp eq ptr %fmt, null
  %1 = icmp ugt i32 %symbol, 28
  %or.cond1 = or i1 %cmp1, %1
  %cmp7 = icmp eq ptr %value, null
  %or.cond2 = or i1 %or.cond1, %cmp7
  %cmp9 = icmp slt i32 %length, -1
  %or.cond3 = or i1 %or.cond2, %cmp9
  br i1 %or.cond3, label %if.then10, label %dynamic_cast.notnull

if.then10:                                        ; preds = %if.end
  store i32 1, ptr %status, align 4
  br label %return

dynamic_cast.notnull:                             ; preds = %if.end
  %2 = tail call ptr @__dynamic_cast(ptr nonnull %fmt, ptr nonnull @_ZTIN6icu_7512NumberFormatE, ptr nonnull @_ZTIN6icu_7513DecimalFormatE, i64 0) #10
  %cmp12 = icmp eq ptr %2, null
  br i1 %cmp12, label %if.then13, label %if.end14

if.then13:                                        ; preds = %dynamic_cast.notnull
  store i32 16, ptr %status, align 4
  br label %return

if.end14:                                         ; preds = %dynamic_cast.notnull
  %vtable = load ptr, ptr %2, align 8
  %vfn = getelementptr inbounds i8, ptr %vtable, i64 312
  %3 = load ptr, ptr %vfn, align 8
  %call15 = tail call noundef ptr %3(ptr noundef nonnull align 8 dereferenceable(368) %2)
  call void @_ZN6icu_7520DecimalFormatSymbolsC1ERKS0_(ptr noundef nonnull align 8 dereferenceable(2883) %symbols, ptr noundef nonnull align 8 dereferenceable(2883) %call15)
  invoke void @_ZN6icu_7513UnicodeStringC1EPKDsi(ptr noundef nonnull align 8 dereferenceable(64) %ref.tmp, ptr noundef nonnull %value, i32 noundef %length)
          to label %invoke.cont unwind label %lpad

invoke.cont:                                      ; preds = %if.end14
  invoke void @_ZN6icu_7520DecimalFormatSymbols9setSymbolENS0_19ENumberFormatSymbolERKNS_13UnicodeStringEa(ptr noundef nonnull align 8 dereferenceable(2883) %symbols, i32 noundef %symbol, ptr noundef nonnull align 8 dereferenceable(64) %ref.tmp, i8 noundef signext 1)
          to label %invoke.cont17 unwind label %lpad16

invoke.cont17:                                    ; preds = %invoke.cont
  call void @_ZN6icu_7513UnicodeStringD1Ev(ptr noundef nonnull align 8 dereferenceable(64) %ref.tmp) #10
  %vtable18 = load ptr, ptr %2, align 8
  %vfn19 = getelementptr inbounds i8, ptr %vtable18, i64 328
  %4 = load ptr, ptr %vfn19, align 8
  invoke void %4(ptr noundef nonnull align 8 dereferenceable(368) %2, ptr noundef nonnull align 8 dereferenceable(2883) %symbols)
          to label %invoke.cont20 unwind label %lpad

invoke.cont20:                                    ; preds = %invoke.cont17
  call void @_ZN6icu_7520DecimalFormatSymbolsD1Ev(ptr noundef nonnull align 8 dereferenceable(2883) %symbols) #10
  br label %return

return:                                           ; preds = %entry, %lor.lhs.false, %invoke.cont20, %if.then13, %if.then10
  ret void

lpad:                                             ; preds = %invoke.cont17, %if.end14
  %5 = landingpad { ptr, i32 }
          cleanup
  br label %ehcleanup

lpad16:                                           ; preds = %invoke.cont
  %6 = landingpad { ptr, i32 }
          cleanup
  call void @_ZN6icu_7513UnicodeStringD1Ev(ptr noundef nonnull align 8 dereferenceable(64) %ref.tmp) #10
  br label %ehcleanup

ehcleanup:                                        ; preds = %lpad16, %lpad
  %.pn = phi { ptr, i32 } [ %5, %lpad ], [ %6, %lpad16 ]
  call void @_ZN6icu_7520DecimalFormatSymbolsD1Ev(ptr noundef nonnull align 8 dereferenceable(2883) %symbols) #10
  resume { ptr, i32 } %.pn
}